
build/release/cat.elf:     file format elf32-littleriscv
build/release/cat.elf
architecture: riscv:rv32, flags 0x00000112:
EXEC_P, HAS_SYMS, D_PAGED
start address 0x08005000

Program Header:
    LOAD off    0x00001000 vaddr 0x08005000 paddr 0x08005000 align 2**12
         filesz 0x00000618 memsz 0x00001220 flags rwx

Sections:
Idx Name              Size      VMA       LMA       File off  Algn  Flags
  0 .text             00000598  08005000  08005000  00001000  2**3  CONTENTS, ALLOC, LOAD, READONLY, CODE
  1 .rodata           00000078  08005598  08005598  00001598  2**3  CONTENTS, ALLOC, LOAD, READONLY, DATA
  2 .data             00000008  08005610  08005610  00001610  2**3  CONTENTS, ALLOC, LOAD, DATA
  3 .bss              00000404  08005618  08005618  00001618  2**3  ALLOC
  4 .heap             00000800  08005a20  08005a20  00001618  2**3  ALLOC
  5 .riscv.attributes 0000001c  00000000  00000000  00001618  2**0  CONTENTS, READONLY
  6 .comment          00000028  00000000  00000000  00001634  2**0  CONTENTS, READONLY
SYMBOL TABLE:
08005000 l    d  .text	00000000 .text
08005598 l    d  .rodata	00000000 .rodata
08005610 l    d  .data	00000000 .data
08005618 l    d  .bss	00000000 .bss
08005a20 l    d  .heap	00000000 .heap
00000000 l    d  .riscv.attributes	00000000 .riscv.attributes
00000000 l    d  .comment	00000000 .comment
00000000 l    df *ABS*	00000000 servers.c
08005618 l     O .bss	00000004 sender
0800561c l     O .bss	00000400 buf
00000000 l    df *ABS*	00000000 cat.c
00000000 l    df *ABS*	00000000 memcpy.c
00000000 l    df *ABS*	00000000 strcpy.c
00000000 l    df *ABS*	00000000 strlen.c
0800545c g     F .text	000000b0 strcpy
08005340 g     F .text	0000011c memcpy
08005614 g     O .data	00000004 earth
00000800 g       *ABS*	00000000 __heap_size
08005120 g     F .text	000000f0 file_read
08005610 g     O .data	00000004 grass
08005210 g     F .text	00000130 main
08005000 g       .text	00000000 _enter
08008000 g       *ABS*	00000000 __heap_end
08005a20 g       .heap	00000000 __heap_start
08005010 g     F .text	0000002c exit
0800503c g     F .text	000000e4 dir_lookup
0800550c g     F .text	0000008c strlen



Disassembly of section .text:

08005000 <_enter>:
_enter():
 8005000:	00052503          	lw	a0,0(a0)
 8005004:	80002137          	lui	sp,0x80002
 8005008:	208000ef          	jal	ra,8005210 <main>
 800500c:	004000ef          	jal	ra,8005010 <exit>

08005010 <exit>:
exit():
 8005010:	fe010113          	addi	sp,sp,-32 # 80001fe0 <__heap_end+0x77ff9fe0>
 8005014:	00112e23          	sw	ra,28(sp)
 8005018:	00812c23          	sw	s0,24(sp)
 800501c:	02010413          	addi	s0,sp,32
 8005020:	fea42623          	sw	a0,-20(s0)
 8005024:	080057b7          	lui	a5,0x8005
 8005028:	6107a783          	lw	a5,1552(a5) # 8005610 <grass>
 800502c:	0a47a783          	lw	a5,164(a5)
 8005030:	fec42503          	lw	a0,-20(s0)
 8005034:	000780e7          	jalr	a5
 8005038:	0000006f          	j	8005038 <exit+0x28>

0800503c <dir_lookup>:
dir_lookup():
 800503c:	fb010113          	addi	sp,sp,-80
 8005040:	04112623          	sw	ra,76(sp)
 8005044:	04812423          	sw	s0,72(sp)
 8005048:	05010413          	addi	s0,sp,80
 800504c:	faa42e23          	sw	a0,-68(s0)
 8005050:	fab42c23          	sw	a1,-72(s0)
 8005054:	00100793          	li	a5,1
 8005058:	fcf42223          	sw	a5,-60(s0)
 800505c:	fbc42783          	lw	a5,-68(s0)
 8005060:	fcf42423          	sw	a5,-56(s0)
 8005064:	fc440793          	addi	a5,s0,-60
 8005068:	00878793          	addi	a5,a5,8
 800506c:	fb842583          	lw	a1,-72(s0)
 8005070:	00078513          	mv	a0,a5
 8005074:	3e8000ef          	jal	ra,800545c <strcpy>
 8005078:	080057b7          	lui	a5,0x8005
 800507c:	6107a783          	lw	a5,1552(a5) # 8005610 <grass>
 8005080:	0a87a703          	lw	a4,168(a5)
 8005084:	fc440793          	addi	a5,s0,-60
 8005088:	02800613          	li	a2,40
 800508c:	00078593          	mv	a1,a5
 8005090:	00300513          	li	a0,3
 8005094:	000700e7          	jalr	a4
 8005098:	080057b7          	lui	a5,0x8005
 800509c:	6107a783          	lw	a5,1552(a5) # 8005610 <grass>
 80050a0:	0ac7a703          	lw	a4,172(a5)
 80050a4:	40000613          	li	a2,1024
 80050a8:	080057b7          	lui	a5,0x8005
 80050ac:	61c78593          	addi	a1,a5,1564 # 800561c <buf>
 80050b0:	080057b7          	lui	a5,0x8005
 80050b4:	61878513          	addi	a0,a5,1560 # 8005618 <sender>
 80050b8:	000700e7          	jalr	a4
 80050bc:	080057b7          	lui	a5,0x8005
 80050c0:	6187a703          	lw	a4,1560(a5) # 8005618 <sender>
 80050c4:	00300793          	li	a5,3
 80050c8:	00f70e63          	beq	a4,a5,80050e4 <dir_lookup+0xa8>
 80050cc:	080057b7          	lui	a5,0x8005
 80050d0:	6147a783          	lw	a5,1556(a5) # 8005614 <earth>
 80050d4:	03c7a703          	lw	a4,60(a5)
 80050d8:	080057b7          	lui	a5,0x8005
 80050dc:	59878513          	addi	a0,a5,1432 # 8005598 <strlen+0x8c>
 80050e0:	000700e7          	jalr	a4
 80050e4:	080057b7          	lui	a5,0x8005
 80050e8:	61c78793          	addi	a5,a5,1564 # 800561c <buf>
 80050ec:	fef42623          	sw	a5,-20(s0)
 80050f0:	fec42783          	lw	a5,-20(s0)
 80050f4:	0007a783          	lw	a5,0(a5)
 80050f8:	00079863          	bnez	a5,8005108 <dir_lookup+0xcc>
 80050fc:	fec42783          	lw	a5,-20(s0)
 8005100:	0047a783          	lw	a5,4(a5)
 8005104:	0080006f          	j	800510c <dir_lookup+0xd0>
 8005108:	fff00793          	li	a5,-1
 800510c:	00078513          	mv	a0,a5
 8005110:	04c12083          	lw	ra,76(sp)
 8005114:	04812403          	lw	s0,72(sp)
 8005118:	05010113          	addi	sp,sp,80
 800511c:	00008067          	ret

08005120 <file_read>:
file_read():
 8005120:	dd010113          	addi	sp,sp,-560
 8005124:	22112623          	sw	ra,556(sp)
 8005128:	22812423          	sw	s0,552(sp)
 800512c:	23010413          	addi	s0,sp,560
 8005130:	dca42e23          	sw	a0,-548(s0)
 8005134:	dcb42c23          	sw	a1,-552(s0)
 8005138:	dcc42a23          	sw	a2,-556(s0)
 800513c:	00100793          	li	a5,1
 8005140:	def42023          	sw	a5,-544(s0)
 8005144:	ddc42783          	lw	a5,-548(s0)
 8005148:	def42223          	sw	a5,-540(s0)
 800514c:	dd842783          	lw	a5,-552(s0)
 8005150:	def42423          	sw	a5,-536(s0)
 8005154:	080057b7          	lui	a5,0x8005
 8005158:	6107a783          	lw	a5,1552(a5) # 8005610 <grass>
 800515c:	0a87a703          	lw	a4,168(a5)
 8005160:	de040793          	addi	a5,s0,-544
 8005164:	20c00613          	li	a2,524
 8005168:	00078593          	mv	a1,a5
 800516c:	00200513          	li	a0,2
 8005170:	000700e7          	jalr	a4
 8005174:	080057b7          	lui	a5,0x8005
 8005178:	6107a783          	lw	a5,1552(a5) # 8005610 <grass>
 800517c:	0ac7a703          	lw	a4,172(a5)
 8005180:	40000613          	li	a2,1024
 8005184:	080057b7          	lui	a5,0x8005
 8005188:	61c78593          	addi	a1,a5,1564 # 800561c <buf>
 800518c:	080057b7          	lui	a5,0x8005
 8005190:	61878513          	addi	a0,a5,1560 # 8005618 <sender>
 8005194:	000700e7          	jalr	a4
 8005198:	080057b7          	lui	a5,0x8005
 800519c:	6187a703          	lw	a4,1560(a5) # 8005618 <sender>
 80051a0:	00200793          	li	a5,2
 80051a4:	00f70e63          	beq	a4,a5,80051c0 <file_read+0xa0>
 80051a8:	080057b7          	lui	a5,0x8005
 80051ac:	6147a783          	lw	a5,1556(a5) # 8005614 <earth>
 80051b0:	03c7a703          	lw	a4,60(a5)
 80051b4:	080057b7          	lui	a5,0x8005
 80051b8:	5b878513          	addi	a0,a5,1464 # 80055b8 <strlen+0xac>
 80051bc:	000700e7          	jalr	a4
 80051c0:	080057b7          	lui	a5,0x8005
 80051c4:	61c78793          	addi	a5,a5,1564 # 800561c <buf>
 80051c8:	fef42623          	sw	a5,-20(s0)
 80051cc:	fec42783          	lw	a5,-20(s0)
 80051d0:	00478793          	addi	a5,a5,4
 80051d4:	20000613          	li	a2,512
 80051d8:	00078593          	mv	a1,a5
 80051dc:	dd442503          	lw	a0,-556(s0)
 80051e0:	160000ef          	jal	ra,8005340 <memcpy>
 80051e4:	fec42783          	lw	a5,-20(s0)
 80051e8:	0007a783          	lw	a5,0(a5)
 80051ec:	00079663          	bnez	a5,80051f8 <file_read+0xd8>
 80051f0:	00000793          	li	a5,0
 80051f4:	0080006f          	j	80051fc <file_read+0xdc>
 80051f8:	fff00793          	li	a5,-1
 80051fc:	00078513          	mv	a0,a5
 8005200:	22c12083          	lw	ra,556(sp)
 8005204:	22812403          	lw	s0,552(sp)
 8005208:	23010113          	addi	sp,sp,560
 800520c:	00008067          	ret

08005210 <main>:
main():
 8005210:	dd010113          	addi	sp,sp,-560
 8005214:	22112623          	sw	ra,556(sp)
 8005218:	22812423          	sw	s0,552(sp)
 800521c:	23010413          	addi	s0,sp,560
 8005220:	dca42e23          	sw	a0,-548(s0)
 8005224:	dcb42c23          	sw	a1,-552(s0)
 8005228:	ddc42703          	lw	a4,-548(s0)
 800522c:	00100793          	li	a5,1
 8005230:	02f71263          	bne	a4,a5,8005254 <main+0x44>
 8005234:	080057b7          	lui	a5,0x8005
 8005238:	6147a783          	lw	a5,1556(a5) # 8005614 <earth>
 800523c:	0387a703          	lw	a4,56(a5)
 8005240:	080057b7          	lui	a5,0x8005
 8005244:	5d878513          	addi	a0,a5,1496 # 80055d8 <strlen+0xcc>
 8005248:	000700e7          	jalr	a4
 800524c:	fff00793          	li	a5,-1
 8005250:	0dc0006f          	j	800532c <main+0x11c>
 8005254:	080057b7          	lui	a5,0x8005
 8005258:	6107a783          	lw	a5,1552(a5) # 8005610 <grass>
 800525c:	0007a703          	lw	a4,0(a5)
 8005260:	dd842783          	lw	a5,-552(s0)
 8005264:	00478793          	addi	a5,a5,4
 8005268:	0007a783          	lw	a5,0(a5)
 800526c:	00078593          	mv	a1,a5
 8005270:	00070513          	mv	a0,a4
 8005274:	dc9ff0ef          	jal	ra,800503c <dir_lookup>
 8005278:	fea42623          	sw	a0,-20(s0)
 800527c:	fec42783          	lw	a5,-20(s0)
 8005280:	0207da63          	bgez	a5,80052b4 <main+0xa4>
 8005284:	080057b7          	lui	a5,0x8005
 8005288:	6147a783          	lw	a5,1556(a5) # 8005614 <earth>
 800528c:	0387a703          	lw	a4,56(a5)
 8005290:	dd842783          	lw	a5,-552(s0)
 8005294:	00478793          	addi	a5,a5,4
 8005298:	0007a783          	lw	a5,0(a5)
 800529c:	00078593          	mv	a1,a5
 80052a0:	080057b7          	lui	a5,0x8005
 80052a4:	5ec78513          	addi	a0,a5,1516 # 80055ec <strlen+0xe0>
 80052a8:	000700e7          	jalr	a4
 80052ac:	fff00793          	li	a5,-1
 80052b0:	07c0006f          	j	800532c <main+0x11c>
 80052b4:	dec40793          	addi	a5,s0,-532
 80052b8:	00078613          	mv	a2,a5
 80052bc:	00000593          	li	a1,0
 80052c0:	fec42503          	lw	a0,-20(s0)
 80052c4:	e5dff0ef          	jal	ra,8005120 <file_read>
 80052c8:	080057b7          	lui	a5,0x8005
 80052cc:	6147a783          	lw	a5,1556(a5) # 8005614 <earth>
 80052d0:	0347a703          	lw	a4,52(a5)
 80052d4:	dec40793          	addi	a5,s0,-532
 80052d8:	00078593          	mv	a1,a5
 80052dc:	080057b7          	lui	a5,0x8005
 80052e0:	60478513          	addi	a0,a5,1540 # 8005604 <strlen+0xf8>
 80052e4:	000700e7          	jalr	a4
 80052e8:	dec40793          	addi	a5,s0,-532
 80052ec:	00078513          	mv	a0,a5
 80052f0:	21c000ef          	jal	ra,800550c <strlen>
 80052f4:	00050793          	mv	a5,a0
 80052f8:	fff78793          	addi	a5,a5,-1
 80052fc:	ff040713          	addi	a4,s0,-16
 8005300:	00f707b3          	add	a5,a4,a5
 8005304:	dfc7c703          	lbu	a4,-516(a5)
 8005308:	00a00793          	li	a5,10
 800530c:	00f70e63          	beq	a4,a5,8005328 <main+0x118>
 8005310:	080057b7          	lui	a5,0x8005
 8005314:	6147a783          	lw	a5,1556(a5) # 8005614 <earth>
 8005318:	0347a703          	lw	a4,52(a5)
 800531c:	080057b7          	lui	a5,0x8005
 8005320:	60878513          	addi	a0,a5,1544 # 8005608 <strlen+0xfc>
 8005324:	000700e7          	jalr	a4
 8005328:	00000793          	li	a5,0
 800532c:	00078513          	mv	a0,a5
 8005330:	22c12083          	lw	ra,556(sp)
 8005334:	22812403          	lw	s0,552(sp)
 8005338:	23010113          	addi	sp,sp,560
 800533c:	00008067          	ret

08005340 <memcpy>:
memcpy():
 8005340:	00a5c7b3          	xor	a5,a1,a0
 8005344:	0037f793          	andi	a5,a5,3
 8005348:	00c508b3          	add	a7,a0,a2
 800534c:	06079263          	bnez	a5,80053b0 <memcpy+0x70>
 8005350:	00300793          	li	a5,3
 8005354:	04c7fe63          	bgeu	a5,a2,80053b0 <memcpy+0x70>
 8005358:	00357793          	andi	a5,a0,3
 800535c:	00050713          	mv	a4,a0
 8005360:	06079863          	bnez	a5,80053d0 <memcpy+0x90>
 8005364:	ffc8f613          	andi	a2,a7,-4
 8005368:	fe060793          	addi	a5,a2,-32
 800536c:	08f76c63          	bltu	a4,a5,8005404 <memcpy+0xc4>
 8005370:	02c77c63          	bgeu	a4,a2,80053a8 <memcpy+0x68>
 8005374:	00058693          	mv	a3,a1
 8005378:	00070793          	mv	a5,a4
 800537c:	0006a803          	lw	a6,0(a3)
 8005380:	00478793          	addi	a5,a5,4
 8005384:	00468693          	addi	a3,a3,4
 8005388:	ff07ae23          	sw	a6,-4(a5)
 800538c:	fec7e8e3          	bltu	a5,a2,800537c <memcpy+0x3c>
 8005390:	fff60793          	addi	a5,a2,-1
 8005394:	40e787b3          	sub	a5,a5,a4
 8005398:	ffc7f793          	andi	a5,a5,-4
 800539c:	00478793          	addi	a5,a5,4
 80053a0:	00f70733          	add	a4,a4,a5
 80053a4:	00f585b3          	add	a1,a1,a5
 80053a8:	01176863          	bltu	a4,a7,80053b8 <memcpy+0x78>
 80053ac:	00008067          	ret
 80053b0:	00050713          	mv	a4,a0
 80053b4:	ff157ce3          	bgeu	a0,a7,80053ac <memcpy+0x6c>
 80053b8:	0005c783          	lbu	a5,0(a1)
 80053bc:	00170713          	addi	a4,a4,1
 80053c0:	00158593          	addi	a1,a1,1
 80053c4:	fef70fa3          	sb	a5,-1(a4)
 80053c8:	ff1768e3          	bltu	a4,a7,80053b8 <memcpy+0x78>
 80053cc:	00008067          	ret
 80053d0:	0005c683          	lbu	a3,0(a1)
 80053d4:	00170713          	addi	a4,a4,1
 80053d8:	00377793          	andi	a5,a4,3
 80053dc:	fed70fa3          	sb	a3,-1(a4)
 80053e0:	00158593          	addi	a1,a1,1
 80053e4:	f80780e3          	beqz	a5,8005364 <memcpy+0x24>
 80053e8:	0005c683          	lbu	a3,0(a1)
 80053ec:	00170713          	addi	a4,a4,1
 80053f0:	00377793          	andi	a5,a4,3
 80053f4:	fed70fa3          	sb	a3,-1(a4)
 80053f8:	00158593          	addi	a1,a1,1
 80053fc:	fc079ae3          	bnez	a5,80053d0 <memcpy+0x90>
 8005400:	f65ff06f          	j	8005364 <memcpy+0x24>
 8005404:	0005a683          	lw	a3,0(a1)
 8005408:	0045a283          	lw	t0,4(a1)
 800540c:	0085af83          	lw	t6,8(a1)
 8005410:	00c5af03          	lw	t5,12(a1)
 8005414:	0105ae83          	lw	t4,16(a1)
 8005418:	0145ae03          	lw	t3,20(a1)
 800541c:	0185a303          	lw	t1,24(a1)
 8005420:	01c5a803          	lw	a6,28(a1)
 8005424:	02458593          	addi	a1,a1,36
 8005428:	00d72023          	sw	a3,0(a4)
 800542c:	ffc5a683          	lw	a3,-4(a1)
 8005430:	00572223          	sw	t0,4(a4)
 8005434:	01f72423          	sw	t6,8(a4)
 8005438:	01e72623          	sw	t5,12(a4)
 800543c:	01d72823          	sw	t4,16(a4)
 8005440:	01c72a23          	sw	t3,20(a4)
 8005444:	00672c23          	sw	t1,24(a4)
 8005448:	01072e23          	sw	a6,28(a4)
 800544c:	02470713          	addi	a4,a4,36
 8005450:	fed72e23          	sw	a3,-4(a4)
 8005454:	faf768e3          	bltu	a4,a5,8005404 <memcpy+0xc4>
 8005458:	f19ff06f          	j	8005370 <memcpy+0x30>

0800545c <strcpy>:
strcpy():
 800545c:	00b567b3          	or	a5,a0,a1
 8005460:	0037f793          	andi	a5,a5,3
 8005464:	08079263          	bnez	a5,80054e8 <strcpy+0x8c>
 8005468:	0005a703          	lw	a4,0(a1)
 800546c:	7f7f86b7          	lui	a3,0x7f7f8
 8005470:	f7f68693          	addi	a3,a3,-129 # 7f7f7f7f <__heap_end+0x777eff7f>
 8005474:	00d777b3          	and	a5,a4,a3
 8005478:	00d787b3          	add	a5,a5,a3
 800547c:	00e7e7b3          	or	a5,a5,a4
 8005480:	00d7e7b3          	or	a5,a5,a3
 8005484:	fff00613          	li	a2,-1
 8005488:	06c79e63          	bne	a5,a2,8005504 <strcpy+0xa8>
 800548c:	00050613          	mv	a2,a0
 8005490:	fff00813          	li	a6,-1
 8005494:	00460613          	addi	a2,a2,4
 8005498:	00458593          	addi	a1,a1,4
 800549c:	fee62e23          	sw	a4,-4(a2)
 80054a0:	0005a703          	lw	a4,0(a1)
 80054a4:	00d777b3          	and	a5,a4,a3
 80054a8:	00d787b3          	add	a5,a5,a3
 80054ac:	00e7e7b3          	or	a5,a5,a4
 80054b0:	00d7e7b3          	or	a5,a5,a3
 80054b4:	ff0780e3          	beq	a5,a6,8005494 <strcpy+0x38>
 80054b8:	0005c783          	lbu	a5,0(a1)
 80054bc:	0015c703          	lbu	a4,1(a1)
 80054c0:	0025c683          	lbu	a3,2(a1)
 80054c4:	00f60023          	sb	a5,0(a2)
 80054c8:	00078a63          	beqz	a5,80054dc <strcpy+0x80>
 80054cc:	00e600a3          	sb	a4,1(a2)
 80054d0:	00070663          	beqz	a4,80054dc <strcpy+0x80>
 80054d4:	00d60123          	sb	a3,2(a2)
 80054d8:	00069463          	bnez	a3,80054e0 <strcpy+0x84>
 80054dc:	00008067          	ret
 80054e0:	000601a3          	sb	zero,3(a2)
 80054e4:	00008067          	ret
 80054e8:	00050793          	mv	a5,a0
 80054ec:	0005c703          	lbu	a4,0(a1)
 80054f0:	00178793          	addi	a5,a5,1
 80054f4:	00158593          	addi	a1,a1,1
 80054f8:	fee78fa3          	sb	a4,-1(a5)
 80054fc:	fe0718e3          	bnez	a4,80054ec <strcpy+0x90>
 8005500:	00008067          	ret
 8005504:	00050613          	mv	a2,a0
 8005508:	fb1ff06f          	j	80054b8 <strcpy+0x5c>

0800550c <strlen>:
strlen():
 800550c:	00357793          	andi	a5,a0,3
 8005510:	00050713          	mv	a4,a0
 8005514:	04079c63          	bnez	a5,800556c <strlen+0x60>
 8005518:	7f7f86b7          	lui	a3,0x7f7f8
 800551c:	f7f68693          	addi	a3,a3,-129 # 7f7f7f7f <__heap_end+0x777eff7f>
 8005520:	fff00593          	li	a1,-1
 8005524:	00470713          	addi	a4,a4,4
 8005528:	ffc72603          	lw	a2,-4(a4)
 800552c:	00d677b3          	and	a5,a2,a3
 8005530:	00d787b3          	add	a5,a5,a3
 8005534:	00c7e7b3          	or	a5,a5,a2
 8005538:	00d7e7b3          	or	a5,a5,a3
 800553c:	feb784e3          	beq	a5,a1,8005524 <strlen+0x18>
 8005540:	ffc74683          	lbu	a3,-4(a4)
 8005544:	40a707b3          	sub	a5,a4,a0
 8005548:	ffd74603          	lbu	a2,-3(a4)
 800554c:	ffe74503          	lbu	a0,-2(a4)
 8005550:	04068063          	beqz	a3,8005590 <strlen+0x84>
 8005554:	02060a63          	beqz	a2,8005588 <strlen+0x7c>
 8005558:	00a03533          	snez	a0,a0
 800555c:	00f50533          	add	a0,a0,a5
 8005560:	ffe50513          	addi	a0,a0,-2
 8005564:	00008067          	ret
 8005568:	fa0688e3          	beqz	a3,8005518 <strlen+0xc>
 800556c:	00074783          	lbu	a5,0(a4)
 8005570:	00170713          	addi	a4,a4,1
 8005574:	00377693          	andi	a3,a4,3
 8005578:	fe0798e3          	bnez	a5,8005568 <strlen+0x5c>
 800557c:	40a70733          	sub	a4,a4,a0
 8005580:	fff70513          	addi	a0,a4,-1
 8005584:	00008067          	ret
 8005588:	ffd78513          	addi	a0,a5,-3
 800558c:	00008067          	ret
 8005590:	ffc78513          	addi	a0,a5,-4
 8005594:	00008067          	ret
