
build/release/cd.elf:     file format elf32-littleriscv
build/release/cd.elf
architecture: riscv:rv32, flags 0x00000112:
EXEC_P, HAS_SYMS, D_PAGED
start address 0x08005000

Program Header:
    LOAD off    0x00001000 vaddr 0x08005000 paddr 0x08005000 align 2**12
         filesz 0x000008c0 memsz 0x000014c8 flags rwx

Sections:
Idx Name              Size      VMA       LMA       File off  Algn  Flags
  0 .text             00000830  08005000  08005000  00001000  2**3  CONTENTS, ALLOC, LOAD, READONLY, CODE
  1 .rodata           00000088  08005830  08005830  00001830  2**3  CONTENTS, ALLOC, LOAD, READONLY, DATA
  2 .data             00000008  080058b8  080058b8  000018b8  2**3  CONTENTS, ALLOC, LOAD, DATA
  3 .bss              00000404  080058c0  080058c0  000018c0  2**3  ALLOC
  4 .heap             00000800  08005cc8  08005cc8  000018c0  2**3  ALLOC
  5 .riscv.attributes 0000001c  00000000  00000000  000018c0  2**0  CONTENTS, READONLY
  6 .comment          00000028  00000000  00000000  000018dc  2**0  CONTENTS, READONLY
SYMBOL TABLE:
08005000 l    d  .text	00000000 .text
08005830 l    d  .rodata	00000000 .rodata
080058b8 l    d  .data	00000000 .data
080058c0 l    d  .bss	00000000 .bss
08005cc8 l    d  .heap	00000000 .heap
00000000 l    d  .riscv.attributes	00000000 .riscv.attributes
00000000 l    d  .comment	00000000 .comment
00000000 l    df *ABS*	00000000 servers.c
080058c0 l     O .bss	00000004 sender
080058c4 l     O .bss	00000400 buf
00000000 l    df *ABS*	00000000 cd.c
00000000 l    df *ABS*	00000000 memcpy.c
00000000 l    df *ABS*	00000000 strcpy.c
00000000 l    df *ABS*	00000000 strlen.c
00000000 l    df *ABS*	00000000 strncat.c
08005644 g     F .text	000000b0 strcpy
080053ac g     F .text	0000011c memcpy
080058bc g     O .data	00000004 earth
00000800 g       *ABS*	00000000 __heap_size
080058b8 g     O .data	00000004 grass
08005780 g     F .text	000000b0 strncat
08005120 g     F .text	0000028c main
08005000 g       .text	00000000 _enter
080054c8 g     F .text	0000017c strcmp
08008000 g       *ABS*	00000000 __heap_end
08005cc8 g       .heap	00000000 __heap_start
08005010 g     F .text	0000002c exit
0800503c g     F .text	000000e4 dir_lookup
080056f4 g     F .text	0000008c strlen



Disassembly of section .text:

08005000 <_enter>:
_enter():
 8005000:	00052503          	lw	a0,0(a0)
 8005004:	80002137          	lui	sp,0x80002
 8005008:	118000ef          	jal	ra,8005120 <main>
 800500c:	004000ef          	jal	ra,8005010 <exit>

08005010 <exit>:
exit():
 8005010:	fe010113          	addi	sp,sp,-32 # 80001fe0 <__heap_end+0x77ff9fe0>
 8005014:	00112e23          	sw	ra,28(sp)
 8005018:	00812c23          	sw	s0,24(sp)
 800501c:	02010413          	addi	s0,sp,32
 8005020:	fea42623          	sw	a0,-20(s0)
 8005024:	080067b7          	lui	a5,0x8006
 8005028:	8b87a783          	lw	a5,-1864(a5) # 80058b8 <grass>
 800502c:	0a47a783          	lw	a5,164(a5)
 8005030:	fec42503          	lw	a0,-20(s0)
 8005034:	000780e7          	jalr	a5
 8005038:	0000006f          	j	8005038 <exit+0x28>

0800503c <dir_lookup>:
dir_lookup():
 800503c:	fb010113          	addi	sp,sp,-80
 8005040:	04112623          	sw	ra,76(sp)
 8005044:	04812423          	sw	s0,72(sp)
 8005048:	05010413          	addi	s0,sp,80
 800504c:	faa42e23          	sw	a0,-68(s0)
 8005050:	fab42c23          	sw	a1,-72(s0)
 8005054:	00100793          	li	a5,1
 8005058:	fcf42223          	sw	a5,-60(s0)
 800505c:	fbc42783          	lw	a5,-68(s0)
 8005060:	fcf42423          	sw	a5,-56(s0)
 8005064:	fc440793          	addi	a5,s0,-60
 8005068:	00878793          	addi	a5,a5,8
 800506c:	fb842583          	lw	a1,-72(s0)
 8005070:	00078513          	mv	a0,a5
 8005074:	5d0000ef          	jal	ra,8005644 <strcpy>
 8005078:	080067b7          	lui	a5,0x8006
 800507c:	8b87a783          	lw	a5,-1864(a5) # 80058b8 <grass>
 8005080:	0a87a703          	lw	a4,168(a5)
 8005084:	fc440793          	addi	a5,s0,-60
 8005088:	02800613          	li	a2,40
 800508c:	00078593          	mv	a1,a5
 8005090:	00300513          	li	a0,3
 8005094:	000700e7          	jalr	a4
 8005098:	080067b7          	lui	a5,0x8006
 800509c:	8b87a783          	lw	a5,-1864(a5) # 80058b8 <grass>
 80050a0:	0ac7a703          	lw	a4,172(a5)
 80050a4:	40000613          	li	a2,1024
 80050a8:	080067b7          	lui	a5,0x8006
 80050ac:	8c478593          	addi	a1,a5,-1852 # 80058c4 <buf>
 80050b0:	080067b7          	lui	a5,0x8006
 80050b4:	8c078513          	addi	a0,a5,-1856 # 80058c0 <sender>
 80050b8:	000700e7          	jalr	a4
 80050bc:	080067b7          	lui	a5,0x8006
 80050c0:	8c07a703          	lw	a4,-1856(a5) # 80058c0 <sender>
 80050c4:	00300793          	li	a5,3
 80050c8:	00f70e63          	beq	a4,a5,80050e4 <dir_lookup+0xa8>
 80050cc:	080067b7          	lui	a5,0x8006
 80050d0:	8bc7a783          	lw	a5,-1860(a5) # 80058bc <earth>
 80050d4:	03c7a703          	lw	a4,60(a5)
 80050d8:	080067b7          	lui	a5,0x8006
 80050dc:	83078513          	addi	a0,a5,-2000 # 8005830 <strncat+0xb0>
 80050e0:	000700e7          	jalr	a4
 80050e4:	080067b7          	lui	a5,0x8006
 80050e8:	8c478793          	addi	a5,a5,-1852 # 80058c4 <buf>
 80050ec:	fef42623          	sw	a5,-20(s0)
 80050f0:	fec42783          	lw	a5,-20(s0)
 80050f4:	0007a783          	lw	a5,0(a5)
 80050f8:	00079863          	bnez	a5,8005108 <dir_lookup+0xcc>
 80050fc:	fec42783          	lw	a5,-20(s0)
 8005100:	0047a783          	lw	a5,4(a5)
 8005104:	0080006f          	j	800510c <dir_lookup+0xd0>
 8005108:	fff00793          	li	a5,-1
 800510c:	00078513          	mv	a0,a5
 8005110:	04c12083          	lw	ra,76(sp)
 8005114:	04812403          	lw	s0,72(sp)
 8005118:	05010113          	addi	sp,sp,80
 800511c:	00008067          	ret

08005120 <main>:
main():
 8005120:	fd010113          	addi	sp,sp,-48
 8005124:	02112623          	sw	ra,44(sp)
 8005128:	02812423          	sw	s0,40(sp)
 800512c:	02912223          	sw	s1,36(sp)
 8005130:	03212023          	sw	s2,32(sp)
 8005134:	03010413          	addi	s0,sp,48
 8005138:	fca42e23          	sw	a0,-36(s0)
 800513c:	fcb42c23          	sw	a1,-40(s0)
 8005140:	fdc42703          	lw	a4,-36(s0)
 8005144:	00100793          	li	a5,1
 8005148:	06f71663          	bne	a4,a5,80051b4 <main+0x94>
 800514c:	080067b7          	lui	a5,0x8006
 8005150:	87078593          	addi	a1,a5,-1936 # 8005870 <strncat+0xf0>
 8005154:	00000513          	li	a0,0
 8005158:	ee5ff0ef          	jal	ra,800503c <dir_lookup>
 800515c:	fea42423          	sw	a0,-24(s0)
 8005160:	080067b7          	lui	a5,0x8006
 8005164:	8b87a483          	lw	s1,-1864(a5) # 80058b8 <grass>
 8005168:	080067b7          	lui	a5,0x8006
 800516c:	87878593          	addi	a1,a5,-1928 # 8005878 <strncat+0xf8>
 8005170:	fe842503          	lw	a0,-24(s0)
 8005174:	ec9ff0ef          	jal	ra,800503c <dir_lookup>
 8005178:	00050793          	mv	a5,a0
 800517c:	00f4a023          	sw	a5,0(s1)
 8005180:	080067b7          	lui	a5,0x8006
 8005184:	8b87a783          	lw	a5,-1864(a5) # 80058b8 <grass>
 8005188:	00478713          	addi	a4,a5,4
 800518c:	080067b7          	lui	a5,0x8006
 8005190:	88478793          	addi	a5,a5,-1916 # 8005884 <strncat+0x104>
 8005194:	00078693          	mv	a3,a5
 8005198:	00e00793          	li	a5,14
 800519c:	00078613          	mv	a2,a5
 80051a0:	00068593          	mv	a1,a3
 80051a4:	00070513          	mv	a0,a4
 80051a8:	204000ef          	jal	ra,80053ac <memcpy>
 80051ac:	00000793          	li	a5,0
 80051b0:	1e00006f          	j	8005390 <main+0x270>
 80051b4:	fd842783          	lw	a5,-40(s0)
 80051b8:	00478793          	addi	a5,a5,4
 80051bc:	0007a483          	lw	s1,0(a5)
 80051c0:	00048513          	mv	a0,s1
 80051c4:	530000ef          	jal	ra,80056f4 <strlen>
 80051c8:	00050793          	mv	a5,a0
 80051cc:	00f487b3          	add	a5,s1,a5
 80051d0:	02f00713          	li	a4,47
 80051d4:	00e78023          	sb	a4,0(a5)
 80051d8:	000780a3          	sb	zero,1(a5)
 80051dc:	080067b7          	lui	a5,0x8006
 80051e0:	8b87a783          	lw	a5,-1864(a5) # 80058b8 <grass>
 80051e4:	0007a703          	lw	a4,0(a5)
 80051e8:	fd842783          	lw	a5,-40(s0)
 80051ec:	00478793          	addi	a5,a5,4
 80051f0:	0007a783          	lw	a5,0(a5)
 80051f4:	00078593          	mv	a1,a5
 80051f8:	00070513          	mv	a0,a4
 80051fc:	e41ff0ef          	jal	ra,800503c <dir_lookup>
 8005200:	fea42223          	sw	a0,-28(s0)
 8005204:	fe442703          	lw	a4,-28(s0)
 8005208:	fff00793          	li	a5,-1
 800520c:	02f71a63          	bne	a4,a5,8005240 <main+0x120>
 8005210:	080067b7          	lui	a5,0x8006
 8005214:	8bc7a783          	lw	a5,-1860(a5) # 80058bc <earth>
 8005218:	0387a703          	lw	a4,56(a5)
 800521c:	fd842783          	lw	a5,-40(s0)
 8005220:	00478793          	addi	a5,a5,4
 8005224:	0007a783          	lw	a5,0(a5)
 8005228:	00078593          	mv	a1,a5
 800522c:	080067b7          	lui	a5,0x8006
 8005230:	89478513          	addi	a0,a5,-1900 # 8005894 <strncat+0x114>
 8005234:	000700e7          	jalr	a4
 8005238:	fff00793          	li	a5,-1
 800523c:	1540006f          	j	8005390 <main+0x270>
 8005240:	080067b7          	lui	a5,0x8006
 8005244:	8b87a783          	lw	a5,-1864(a5) # 80058b8 <grass>
 8005248:	fe442703          	lw	a4,-28(s0)
 800524c:	00e7a023          	sw	a4,0(a5)
 8005250:	fd842783          	lw	a5,-40(s0)
 8005254:	00478793          	addi	a5,a5,4
 8005258:	0007a783          	lw	a5,0(a5)
 800525c:	00078593          	mv	a1,a5
 8005260:	080067b7          	lui	a5,0x8006
 8005264:	8b078513          	addi	a0,a5,-1872 # 80058b0 <strncat+0x130>
 8005268:	260000ef          	jal	ra,80054c8 <strcmp>
 800526c:	00050793          	mv	a5,a0
 8005270:	00079663          	bnez	a5,800527c <main+0x15c>
 8005274:	00000793          	li	a5,0
 8005278:	1180006f          	j	8005390 <main+0x270>
 800527c:	080067b7          	lui	a5,0x8006
 8005280:	8b87a783          	lw	a5,-1864(a5) # 80058b8 <grass>
 8005284:	00478793          	addi	a5,a5,4
 8005288:	00078513          	mv	a0,a5
 800528c:	468000ef          	jal	ra,80056f4 <strlen>
 8005290:	00050793          	mv	a5,a0
 8005294:	fef42623          	sw	a5,-20(s0)
 8005298:	fd842783          	lw	a5,-40(s0)
 800529c:	00478793          	addi	a5,a5,4
 80052a0:	0007a783          	lw	a5,0(a5)
 80052a4:	00078593          	mv	a1,a5
 80052a8:	080067b7          	lui	a5,0x8006
 80052ac:	8b478513          	addi	a0,a5,-1868 # 80058b4 <strncat+0x134>
 80052b0:	218000ef          	jal	ra,80054c8 <strcmp>
 80052b4:	00050793          	mv	a5,a0
 80052b8:	08078e63          	beqz	a5,8005354 <main+0x234>
 80052bc:	fec42703          	lw	a4,-20(s0)
 80052c0:	00100793          	li	a5,1
 80052c4:	02e7d663          	bge	a5,a4,80052f0 <main+0x1d0>
 80052c8:	080067b7          	lui	a5,0x8006
 80052cc:	8b87a783          	lw	a5,-1864(a5) # 80058b8 <grass>
 80052d0:	00478493          	addi	s1,a5,4
 80052d4:	00048513          	mv	a0,s1
 80052d8:	41c000ef          	jal	ra,80056f4 <strlen>
 80052dc:	00050793          	mv	a5,a0
 80052e0:	00f487b3          	add	a5,s1,a5
 80052e4:	02f00713          	li	a4,47
 80052e8:	00e78023          	sb	a4,0(a5)
 80052ec:	000780a3          	sb	zero,1(a5)
 80052f0:	080067b7          	lui	a5,0x8006
 80052f4:	8b87a783          	lw	a5,-1864(a5) # 80058b8 <grass>
 80052f8:	00478493          	addi	s1,a5,4
 80052fc:	fd842783          	lw	a5,-40(s0)
 8005300:	00478793          	addi	a5,a5,4
 8005304:	0007a903          	lw	s2,0(a5)
 8005308:	fd842783          	lw	a5,-40(s0)
 800530c:	00478793          	addi	a5,a5,4
 8005310:	0007a783          	lw	a5,0(a5)
 8005314:	00078513          	mv	a0,a5
 8005318:	3dc000ef          	jal	ra,80056f4 <strlen>
 800531c:	00050793          	mv	a5,a0
 8005320:	fff78793          	addi	a5,a5,-1
 8005324:	00078613          	mv	a2,a5
 8005328:	00090593          	mv	a1,s2
 800532c:	00048513          	mv	a0,s1
 8005330:	450000ef          	jal	ra,8005780 <strncat>
 8005334:	0580006f          	j	800538c <main+0x26c>
 8005338:	080067b7          	lui	a5,0x8006
 800533c:	8b87a703          	lw	a4,-1864(a5) # 80058b8 <grass>
 8005340:	fec42783          	lw	a5,-20(s0)
 8005344:	fff78693          	addi	a3,a5,-1
 8005348:	fed42623          	sw	a3,-20(s0)
 800534c:	00f707b3          	add	a5,a4,a5
 8005350:	00078223          	sb	zero,4(a5)
 8005354:	080067b7          	lui	a5,0x8006
 8005358:	8b87a703          	lw	a4,-1864(a5) # 80058b8 <grass>
 800535c:	fec42783          	lw	a5,-20(s0)
 8005360:	00f707b3          	add	a5,a4,a5
 8005364:	0047c703          	lbu	a4,4(a5)
 8005368:	02f00793          	li	a5,47
 800536c:	fcf716e3          	bne	a4,a5,8005338 <main+0x218>
 8005370:	fec42783          	lw	a5,-20(s0)
 8005374:	00078c63          	beqz	a5,800538c <main+0x26c>
 8005378:	080067b7          	lui	a5,0x8006
 800537c:	8b87a703          	lw	a4,-1864(a5) # 80058b8 <grass>
 8005380:	fec42783          	lw	a5,-20(s0)
 8005384:	00f707b3          	add	a5,a4,a5
 8005388:	00078223          	sb	zero,4(a5)
 800538c:	00000793          	li	a5,0
 8005390:	00078513          	mv	a0,a5
 8005394:	02c12083          	lw	ra,44(sp)
 8005398:	02812403          	lw	s0,40(sp)
 800539c:	02412483          	lw	s1,36(sp)
 80053a0:	02012903          	lw	s2,32(sp)
 80053a4:	03010113          	addi	sp,sp,48
 80053a8:	00008067          	ret

080053ac <memcpy>:
memcpy():
 80053ac:	00a5c7b3          	xor	a5,a1,a0
 80053b0:	0037f793          	andi	a5,a5,3
 80053b4:	00c508b3          	add	a7,a0,a2
 80053b8:	06079263          	bnez	a5,800541c <memcpy+0x70>
 80053bc:	00300793          	li	a5,3
 80053c0:	04c7fe63          	bgeu	a5,a2,800541c <memcpy+0x70>
 80053c4:	00357793          	andi	a5,a0,3
 80053c8:	00050713          	mv	a4,a0
 80053cc:	06079863          	bnez	a5,800543c <memcpy+0x90>
 80053d0:	ffc8f613          	andi	a2,a7,-4
 80053d4:	fe060793          	addi	a5,a2,-32
 80053d8:	08f76c63          	bltu	a4,a5,8005470 <memcpy+0xc4>
 80053dc:	02c77c63          	bgeu	a4,a2,8005414 <memcpy+0x68>
 80053e0:	00058693          	mv	a3,a1
 80053e4:	00070793          	mv	a5,a4
 80053e8:	0006a803          	lw	a6,0(a3)
 80053ec:	00478793          	addi	a5,a5,4
 80053f0:	00468693          	addi	a3,a3,4
 80053f4:	ff07ae23          	sw	a6,-4(a5)
 80053f8:	fec7e8e3          	bltu	a5,a2,80053e8 <memcpy+0x3c>
 80053fc:	fff60793          	addi	a5,a2,-1
 8005400:	40e787b3          	sub	a5,a5,a4
 8005404:	ffc7f793          	andi	a5,a5,-4
 8005408:	00478793          	addi	a5,a5,4
 800540c:	00f70733          	add	a4,a4,a5
 8005410:	00f585b3          	add	a1,a1,a5
 8005414:	01176863          	bltu	a4,a7,8005424 <memcpy+0x78>
 8005418:	00008067          	ret
 800541c:	00050713          	mv	a4,a0
 8005420:	ff157ce3          	bgeu	a0,a7,8005418 <memcpy+0x6c>
 8005424:	0005c783          	lbu	a5,0(a1)
 8005428:	00170713          	addi	a4,a4,1
 800542c:	00158593          	addi	a1,a1,1
 8005430:	fef70fa3          	sb	a5,-1(a4)
 8005434:	ff1768e3          	bltu	a4,a7,8005424 <memcpy+0x78>
 8005438:	00008067          	ret
 800543c:	0005c683          	lbu	a3,0(a1)
 8005440:	00170713          	addi	a4,a4,1
 8005444:	00377793          	andi	a5,a4,3
 8005448:	fed70fa3          	sb	a3,-1(a4)
 800544c:	00158593          	addi	a1,a1,1
 8005450:	f80780e3          	beqz	a5,80053d0 <memcpy+0x24>
 8005454:	0005c683          	lbu	a3,0(a1)
 8005458:	00170713          	addi	a4,a4,1
 800545c:	00377793          	andi	a5,a4,3
 8005460:	fed70fa3          	sb	a3,-1(a4)
 8005464:	00158593          	addi	a1,a1,1
 8005468:	fc079ae3          	bnez	a5,800543c <memcpy+0x90>
 800546c:	f65ff06f          	j	80053d0 <memcpy+0x24>
 8005470:	0005a683          	lw	a3,0(a1)
 8005474:	0045a283          	lw	t0,4(a1)
 8005478:	0085af83          	lw	t6,8(a1)
 800547c:	00c5af03          	lw	t5,12(a1)
 8005480:	0105ae83          	lw	t4,16(a1)
 8005484:	0145ae03          	lw	t3,20(a1)
 8005488:	0185a303          	lw	t1,24(a1)
 800548c:	01c5a803          	lw	a6,28(a1)
 8005490:	02458593          	addi	a1,a1,36
 8005494:	00d72023          	sw	a3,0(a4)
 8005498:	ffc5a683          	lw	a3,-4(a1)
 800549c:	00572223          	sw	t0,4(a4)
 80054a0:	01f72423          	sw	t6,8(a4)
 80054a4:	01e72623          	sw	t5,12(a4)
 80054a8:	01d72823          	sw	t4,16(a4)
 80054ac:	01c72a23          	sw	t3,20(a4)
 80054b0:	00672c23          	sw	t1,24(a4)
 80054b4:	01072e23          	sw	a6,28(a4)
 80054b8:	02470713          	addi	a4,a4,36
 80054bc:	fed72e23          	sw	a3,-4(a4)
 80054c0:	faf768e3          	bltu	a4,a5,8005470 <memcpy+0xc4>
 80054c4:	f19ff06f          	j	80053dc <memcpy+0x30>

080054c8 <strcmp>:
strcmp():
 80054c8:	00b56733          	or	a4,a0,a1
 80054cc:	fff00393          	li	t2,-1
 80054d0:	00377713          	andi	a4,a4,3
 80054d4:	10071063          	bnez	a4,80055d4 <strcmp+0x10c>
 80054d8:	7f7f87b7          	lui	a5,0x7f7f8
 80054dc:	f7f78793          	addi	a5,a5,-129 # 7f7f7f7f <__heap_end+0x777eff7f>
 80054e0:	00052603          	lw	a2,0(a0)
 80054e4:	0005a683          	lw	a3,0(a1)
 80054e8:	00f672b3          	and	t0,a2,a5
 80054ec:	00f66333          	or	t1,a2,a5
 80054f0:	00f282b3          	add	t0,t0,a5
 80054f4:	0062e2b3          	or	t0,t0,t1
 80054f8:	10729263          	bne	t0,t2,80055fc <strcmp+0x134>
 80054fc:	08d61663          	bne	a2,a3,8005588 <strcmp+0xc0>
 8005500:	00452603          	lw	a2,4(a0)
 8005504:	0045a683          	lw	a3,4(a1)
 8005508:	00f672b3          	and	t0,a2,a5
 800550c:	00f66333          	or	t1,a2,a5
 8005510:	00f282b3          	add	t0,t0,a5
 8005514:	0062e2b3          	or	t0,t0,t1
 8005518:	0c729e63          	bne	t0,t2,80055f4 <strcmp+0x12c>
 800551c:	06d61663          	bne	a2,a3,8005588 <strcmp+0xc0>
 8005520:	00852603          	lw	a2,8(a0)
 8005524:	0085a683          	lw	a3,8(a1)
 8005528:	00f672b3          	and	t0,a2,a5
 800552c:	00f66333          	or	t1,a2,a5
 8005530:	00f282b3          	add	t0,t0,a5
 8005534:	0062e2b3          	or	t0,t0,t1
 8005538:	0c729863          	bne	t0,t2,8005608 <strcmp+0x140>
 800553c:	04d61663          	bne	a2,a3,8005588 <strcmp+0xc0>
 8005540:	00c52603          	lw	a2,12(a0)
 8005544:	00c5a683          	lw	a3,12(a1)
 8005548:	00f672b3          	and	t0,a2,a5
 800554c:	00f66333          	or	t1,a2,a5
 8005550:	00f282b3          	add	t0,t0,a5
 8005554:	0062e2b3          	or	t0,t0,t1
 8005558:	0c729263          	bne	t0,t2,800561c <strcmp+0x154>
 800555c:	02d61663          	bne	a2,a3,8005588 <strcmp+0xc0>
 8005560:	01052603          	lw	a2,16(a0)
 8005564:	0105a683          	lw	a3,16(a1)
 8005568:	00f672b3          	and	t0,a2,a5
 800556c:	00f66333          	or	t1,a2,a5
 8005570:	00f282b3          	add	t0,t0,a5
 8005574:	0062e2b3          	or	t0,t0,t1
 8005578:	0a729c63          	bne	t0,t2,8005630 <strcmp+0x168>
 800557c:	01450513          	addi	a0,a0,20
 8005580:	01458593          	addi	a1,a1,20
 8005584:	f4d60ee3          	beq	a2,a3,80054e0 <strcmp+0x18>
 8005588:	01061713          	slli	a4,a2,0x10
 800558c:	01069793          	slli	a5,a3,0x10
 8005590:	00f71e63          	bne	a4,a5,80055ac <strcmp+0xe4>
 8005594:	01065713          	srli	a4,a2,0x10
 8005598:	0106d793          	srli	a5,a3,0x10
 800559c:	40f70533          	sub	a0,a4,a5
 80055a0:	0ff57593          	andi	a1,a0,255
 80055a4:	02059063          	bnez	a1,80055c4 <strcmp+0xfc>
 80055a8:	00008067          	ret
 80055ac:	01075713          	srli	a4,a4,0x10
 80055b0:	0107d793          	srli	a5,a5,0x10
 80055b4:	40f70533          	sub	a0,a4,a5
 80055b8:	0ff57593          	andi	a1,a0,255
 80055bc:	00059463          	bnez	a1,80055c4 <strcmp+0xfc>
 80055c0:	00008067          	ret
 80055c4:	0ff77713          	andi	a4,a4,255
 80055c8:	0ff7f793          	andi	a5,a5,255
 80055cc:	40f70533          	sub	a0,a4,a5
 80055d0:	00008067          	ret
 80055d4:	00054603          	lbu	a2,0(a0)
 80055d8:	0005c683          	lbu	a3,0(a1)
 80055dc:	00150513          	addi	a0,a0,1
 80055e0:	00158593          	addi	a1,a1,1
 80055e4:	00d61463          	bne	a2,a3,80055ec <strcmp+0x124>
 80055e8:	fe0616e3          	bnez	a2,80055d4 <strcmp+0x10c>
 80055ec:	40d60533          	sub	a0,a2,a3
 80055f0:	00008067          	ret
 80055f4:	00450513          	addi	a0,a0,4
 80055f8:	00458593          	addi	a1,a1,4
 80055fc:	fcd61ce3          	bne	a2,a3,80055d4 <strcmp+0x10c>
 8005600:	00000513          	li	a0,0
 8005604:	00008067          	ret
 8005608:	00850513          	addi	a0,a0,8
 800560c:	00858593          	addi	a1,a1,8
 8005610:	fcd612e3          	bne	a2,a3,80055d4 <strcmp+0x10c>
 8005614:	00000513          	li	a0,0
 8005618:	00008067          	ret
 800561c:	00c50513          	addi	a0,a0,12
 8005620:	00c58593          	addi	a1,a1,12
 8005624:	fad618e3          	bne	a2,a3,80055d4 <strcmp+0x10c>
 8005628:	00000513          	li	a0,0
 800562c:	00008067          	ret
 8005630:	01050513          	addi	a0,a0,16
 8005634:	01058593          	addi	a1,a1,16
 8005638:	f8d61ee3          	bne	a2,a3,80055d4 <strcmp+0x10c>
 800563c:	00000513          	li	a0,0
 8005640:	00008067          	ret

08005644 <strcpy>:
strcpy():
 8005644:	00b567b3          	or	a5,a0,a1
 8005648:	0037f793          	andi	a5,a5,3
 800564c:	08079263          	bnez	a5,80056d0 <strcpy+0x8c>
 8005650:	0005a703          	lw	a4,0(a1)
 8005654:	7f7f86b7          	lui	a3,0x7f7f8
 8005658:	f7f68693          	addi	a3,a3,-129 # 7f7f7f7f <__heap_end+0x777eff7f>
 800565c:	00d777b3          	and	a5,a4,a3
 8005660:	00d787b3          	add	a5,a5,a3
 8005664:	00e7e7b3          	or	a5,a5,a4
 8005668:	00d7e7b3          	or	a5,a5,a3
 800566c:	fff00613          	li	a2,-1
 8005670:	06c79e63          	bne	a5,a2,80056ec <strcpy+0xa8>
 8005674:	00050613          	mv	a2,a0
 8005678:	fff00813          	li	a6,-1
 800567c:	00460613          	addi	a2,a2,4
 8005680:	00458593          	addi	a1,a1,4
 8005684:	fee62e23          	sw	a4,-4(a2)
 8005688:	0005a703          	lw	a4,0(a1)
 800568c:	00d777b3          	and	a5,a4,a3
 8005690:	00d787b3          	add	a5,a5,a3
 8005694:	00e7e7b3          	or	a5,a5,a4
 8005698:	00d7e7b3          	or	a5,a5,a3
 800569c:	ff0780e3          	beq	a5,a6,800567c <strcpy+0x38>
 80056a0:	0005c783          	lbu	a5,0(a1)
 80056a4:	0015c703          	lbu	a4,1(a1)
 80056a8:	0025c683          	lbu	a3,2(a1)
 80056ac:	00f60023          	sb	a5,0(a2)
 80056b0:	00078a63          	beqz	a5,80056c4 <strcpy+0x80>
 80056b4:	00e600a3          	sb	a4,1(a2)
 80056b8:	00070663          	beqz	a4,80056c4 <strcpy+0x80>
 80056bc:	00d60123          	sb	a3,2(a2)
 80056c0:	00069463          	bnez	a3,80056c8 <strcpy+0x84>
 80056c4:	00008067          	ret
 80056c8:	000601a3          	sb	zero,3(a2)
 80056cc:	00008067          	ret
 80056d0:	00050793          	mv	a5,a0
 80056d4:	0005c703          	lbu	a4,0(a1)
 80056d8:	00178793          	addi	a5,a5,1
 80056dc:	00158593          	addi	a1,a1,1
 80056e0:	fee78fa3          	sb	a4,-1(a5)
 80056e4:	fe0718e3          	bnez	a4,80056d4 <strcpy+0x90>
 80056e8:	00008067          	ret
 80056ec:	00050613          	mv	a2,a0
 80056f0:	fb1ff06f          	j	80056a0 <strcpy+0x5c>

080056f4 <strlen>:
strlen():
 80056f4:	00357793          	andi	a5,a0,3
 80056f8:	00050713          	mv	a4,a0
 80056fc:	04079c63          	bnez	a5,8005754 <strlen+0x60>
 8005700:	7f7f86b7          	lui	a3,0x7f7f8
 8005704:	f7f68693          	addi	a3,a3,-129 # 7f7f7f7f <__heap_end+0x777eff7f>
 8005708:	fff00593          	li	a1,-1
 800570c:	00470713          	addi	a4,a4,4
 8005710:	ffc72603          	lw	a2,-4(a4)
 8005714:	00d677b3          	and	a5,a2,a3
 8005718:	00d787b3          	add	a5,a5,a3
 800571c:	00c7e7b3          	or	a5,a5,a2
 8005720:	00d7e7b3          	or	a5,a5,a3
 8005724:	feb784e3          	beq	a5,a1,800570c <strlen+0x18>
 8005728:	ffc74683          	lbu	a3,-4(a4)
 800572c:	40a707b3          	sub	a5,a4,a0
 8005730:	ffd74603          	lbu	a2,-3(a4)
 8005734:	ffe74503          	lbu	a0,-2(a4)
 8005738:	04068063          	beqz	a3,8005778 <strlen+0x84>
 800573c:	02060a63          	beqz	a2,8005770 <strlen+0x7c>
 8005740:	00a03533          	snez	a0,a0
 8005744:	00f50533          	add	a0,a0,a5
 8005748:	ffe50513          	addi	a0,a0,-2
 800574c:	00008067          	ret
 8005750:	fa0688e3          	beqz	a3,8005700 <strlen+0xc>
 8005754:	00074783          	lbu	a5,0(a4)
 8005758:	00170713          	addi	a4,a4,1
 800575c:	00377693          	andi	a3,a4,3
 8005760:	fe0798e3          	bnez	a5,8005750 <strlen+0x5c>
 8005764:	40a70733          	sub	a4,a4,a0
 8005768:	fff70513          	addi	a0,a4,-1
 800576c:	00008067          	ret
 8005770:	ffd78513          	addi	a0,a5,-3
 8005774:	00008067          	ret
 8005778:	ffc78513          	addi	a0,a5,-4
 800577c:	00008067          	ret

08005780 <strncat>:
strncat():
 8005780:	00357713          	andi	a4,a0,3
 8005784:	00050793          	mv	a5,a0
 8005788:	06071863          	bnez	a4,80057f8 <strncat+0x78>
 800578c:	00052783          	lw	a5,0(a0)
 8005790:	feff08b7          	lui	a7,0xfeff0
 8005794:	eff88893          	addi	a7,a7,-257 # fefefeff <__heap_end+0xf6fe7eff>
 8005798:	fff7c713          	not	a4,a5
 800579c:	80808837          	lui	a6,0x80808
 80057a0:	011787b3          	add	a5,a5,a7
 80057a4:	00f77733          	and	a4,a4,a5
 80057a8:	08080813          	addi	a6,a6,128 # 80808080 <__heap_end+0x78800080>
 80057ac:	01077733          	and	a4,a4,a6
 80057b0:	00050793          	mv	a5,a0
 80057b4:	04071263          	bnez	a4,80057f8 <strncat+0x78>
 80057b8:	00478793          	addi	a5,a5,4
 80057bc:	0007a683          	lw	a3,0(a5)
 80057c0:	01168733          	add	a4,a3,a7
 80057c4:	fff6c693          	not	a3,a3
 80057c8:	00d77733          	and	a4,a4,a3
 80057cc:	01077733          	and	a4,a4,a6
 80057d0:	02071463          	bnez	a4,80057f8 <strncat+0x78>
 80057d4:	00478793          	addi	a5,a5,4
 80057d8:	0007a683          	lw	a3,0(a5)
 80057dc:	01168733          	add	a4,a3,a7
 80057e0:	fff6c693          	not	a3,a3
 80057e4:	00d77733          	and	a4,a4,a3
 80057e8:	01077733          	and	a4,a4,a6
 80057ec:	fc0706e3          	beqz	a4,80057b8 <strncat+0x38>
 80057f0:	0080006f          	j	80057f8 <strncat+0x78>
 80057f4:	00178793          	addi	a5,a5,1
 80057f8:	0007c703          	lbu	a4,0(a5)
 80057fc:	fe071ce3          	bnez	a4,80057f4 <strncat+0x74>
 8005800:	00c586b3          	add	a3,a1,a2
 8005804:	00178793          	addi	a5,a5,1
 8005808:	fff60613          	addi	a2,a2,-1
 800580c:	02d58063          	beq	a1,a3,800582c <strncat+0xac>
 8005810:	00158593          	addi	a1,a1,1
 8005814:	fff5c703          	lbu	a4,-1(a1)
 8005818:	fee78fa3          	sb	a4,-1(a5)
 800581c:	00070863          	beqz	a4,800582c <strncat+0xac>
 8005820:	fe0612e3          	bnez	a2,8005804 <strncat+0x84>
 8005824:	00078023          	sb	zero,0(a5)
 8005828:	00008067          	ret
 800582c:	00008067          	ret
